target datalayout = "e-m:e-p270:32:32-p271:32:32-p272:64:64-i64:64-i128:128-f80:128-n8:16:32:64-S128"
target triple = "x86_64-pc-linux-gnu"

%struct.luaL_Buffer = type { ptr, i64, i64, ptr, %union.anon }
%union.anon = type { double, [1016 x i8] }

@.str.18 = private unnamed_addr constant [19 x i8] c"value out of range\00", align 1

; Function Attrs: nounwind uwtable
define internal i32 @str_char(ptr noundef %0) #0 {
  %2 = alloca ptr, align 8
  %3 = alloca i32, align 4
  %4 = alloca i32, align 4
  %5 = alloca %struct.luaL_Buffer, align 8
  %6 = alloca ptr, align 8
  %7 = alloca i64, align 8
  store ptr %0, ptr %2, align 8, !tbaa !4
  call void @llvm.lifetime.start.p0(i64 4, ptr %3) #11
  %8 = load ptr, ptr %2, align 8, !tbaa !4
  %9 = call i32 @lua_gettop(ptr noundef %8)
  store i32 %9, ptr %3, align 4, !tbaa !15
  call void @llvm.lifetime.start.p0(i64 4, ptr %4) #11
  call void @llvm.lifetime.start.p0(i64 1056, ptr %5) #11
  call void @llvm.lifetime.start.p0(i64 8, ptr %6) #11
  %10 = load ptr, ptr %2, align 8, !tbaa !4
  %11 = load i32, ptr %3, align 4, !tbaa !15
  %12 = zext i32 %11 to i64
  %13 = call ptr @luaL_buffinitsize(ptr noundef %10, ptr noundef %5, i64 noundef %12)
  store ptr %13, ptr %6, align 8, !tbaa !9
  store i32 1, ptr %4, align 4, !tbaa !15
  br label %14

14:                                               ; preds = %42, %1
  %15 = load i32, ptr %4, align 4, !tbaa !15
  %16 = load i32, ptr %3, align 4, !tbaa !15
  %17 = icmp sle i32 %15, %16
  br i1 %17, label %18, label %45

18:                                               ; preds = %14
  call void @llvm.lifetime.start.p0(i64 8, ptr %7) #11
  %19 = load ptr, ptr %2, align 8, !tbaa !4
  %20 = load i32, ptr %4, align 4, !tbaa !15
  %21 = call i64 @luaL_checkinteger(ptr noundef %19, i32 noundef %20)
  store i64 %21, ptr %7, align 8, !tbaa !11
  %22 = load i64, ptr %7, align 8, !tbaa !11
  %23 = icmp ule i64 %22, 255
  %24 = zext i1 %23 to i32
  %25 = icmp ne i32 %24, 0
  %26 = zext i1 %25 to i32
  %27 = sext i32 %26 to i64
  %28 = call i64 @llvm.expect.i64(i64 %27, i64 1)
  %29 = icmp ne i64 %28, 0
  br i1 %29, label %34, label %30

30:                                               ; preds = %18
  %31 = load ptr, ptr %2, align 8, !tbaa !4
  %32 = load i32, ptr %4, align 4, !tbaa !15
  %33 = call i32 @luaL_argerror(ptr noundef %31, i32 noundef %32, ptr noundef @.str.18)
  br label %34

34:                                               ; preds = %30, %18
  %35 = load i64, ptr %7, align 8, !tbaa !11
  %36 = trunc i64 %35 to i8
  %37 = load ptr, ptr %6, align 8, !tbaa !9
  %38 = load i32, ptr %4, align 4, !tbaa !15
  %39 = sub nsw i32 %38, 1
  %40 = sext i32 %39 to i64
  %41 = getelementptr inbounds i8, ptr %37, i64 %40
  store i8 %36, ptr %41, align 1, !tbaa !17
  call void @llvm.lifetime.end.p0(i64 8, ptr %7) #11
  br label %42

42:                                               ; preds = %34
  %43 = load i32, ptr %4, align 4, !tbaa !15
  %44 = add nsw i32 %43, 1
  store i32 %44, ptr %4, align 4, !tbaa !15
  br label %14

45:                                               ; preds = %14
  %46 = load i32, ptr %3, align 4, !tbaa !15
  %47 = zext i32 %46 to i64
  call void @luaL_pushresultsize(ptr noundef %5, i64 noundef %47)
  call void @llvm.lifetime.end.p0(i64 8, ptr %6) #11
  call void @llvm.lifetime.end.p0(i64 1056, ptr %5) #11
  call void @llvm.lifetime.end.p0(i64 4, ptr %4) #11
  call void @llvm.lifetime.end.p0(i64 4, ptr %3) #11
  ret i32 1
}