; Function Attrs: nounwind uwtable
define internal noundef i32 @str_char(ptr noundef %0) #0 {
  %2 = alloca %struct.luaL_Buffer, align 8
  %3 = tail call i32 @lua_gettop(ptr noundef %0) #12
  call void @llvm.lifetime.start.p0(i64 1056, ptr nonnull %2) #12
  %4 = zext i32 %3 to i64
  %5 = call ptr @luaL_buffinitsize(ptr noundef %0, ptr noundef nonnull %2, i64 noundef %4) #12
  %invariant.gep = getelementptr i8, ptr %5, i64 -1
  %.not14 = icmp slt i32 %3, 1
  br i1 %.not14, label %._crit_edge, label %.lr.ph.preheader

.lr.ph.preheader:                                 ; preds = %1
  %6 = add nuw i32 %3, 1
  %wide.trip.count = zext i32 %6 to i64
  br label %.lr.ph

.lr.ph:                                           ; preds = %.lr.ph.preheader, %12
  %indvars.iv = phi i64 [ 1, %.lr.ph.preheader ], [ %indvars.iv.next, %12 ]
  %7 = trunc nuw nsw i64 %indvars.iv to i32
  %8 = call i64 @luaL_checkinteger(ptr noundef %0, i32 noundef %7) #12
  %9 = icmp ult i64 %8, 256
  br i1 %9, label %12, label %10, !prof !10

10:                                               ; preds = %.lr.ph
  %11 = call i32 @luaL_argerror(ptr noundef %0, i32 noundef %7, ptr noundef nonnull @.str.18) #12
  br label %12

12:                                               ; preds = %10, %.lr.ph
  %13 = trunc i64 %8 to i8
  %gep = getelementptr i8, ptr %invariant.gep, i64 %indvars.iv
  store i8 %13, ptr %gep, align 1, !tbaa !9
  %indvars.iv.next = add nuw nsw i64 %indvars.iv, 1
  %exitcond.not = icmp eq i64 %indvars.iv.next, %wide.trip.count
  br i1 %exitcond.not, label %._crit_edge, label %.lr.ph

._crit_edge:                                      ; preds = %12, %1
  call void @luaL_pushresultsize(ptr noundef nonnull %2, i64 noundef %4) #12
  call void @llvm.lifetime.end.p0(i64 1056, ptr nonnull %2) #12
  ret i32 1
}